target datalayout = "e-m:e-p270:32:32-p271:32:32-p272:64:64-i64:64-i128:128-f80:128-n8:16:32:64-S128"
target triple = "x86_64-pc-linux-gnu"

%struct.sat_solver2_t = type { i32, i32, i32, i32, i32, double, double, i32, i32, i32, i32, ptr, ptr, i32, i32, i32, i32, i32, i32, i32, i32, i32, i32, i32, %struct.Sat_Mem_t_, ptr, %struct.veci_t, %struct.veci_t, i32, i32, i32, ptr, ptr, ptr, ptr, ptr, ptr, ptr, ptr, %struct.veci_t, %struct.veci_t, %struct.veci_t, %struct.veci_t, %struct.veci_t, %struct.veci_t, %struct.veci_t, %struct.veci_t, %struct.veci_t, %struct.veci_t, ptr, %struct.veci_t, i32, i32, ptr, double, ptr, i32, %struct.stats_t, i64, i64, i64 }
%struct.Sat_Mem_t_ = type { [2 x i32], [2 x i32], [2 x i32], [2 x i32], i32, i32, i32, i32, ptr }
%struct.veci_t = type { i32, i32, ptr }
%struct.stats_t = type { i32, i32, i32, i64, i64, i64, i64, i64, i64, i64 }

; Function Attrs: nounwind uwtable
define internal double @Sat_MemMemoryAll(ptr noundef %0) #0 {
  %2 = alloca ptr, align 8
  store ptr %0, ptr %2, align 8
  %3 = load ptr, ptr %2, align 8
  %4 = getelementptr inbounds %struct.Sat_Mem_t_, ptr %3, i32 0, i32 3
  %5 = getelementptr inbounds [2 x i32], ptr %4, i64 0, i64 0
  %6 = load i32, ptr %5, align 8
  %7 = load ptr, ptr %2, align 8
  %8 = getelementptr inbounds %struct.Sat_Mem_t_, ptr %7, i32 0, i32 3
  %9 = getelementptr inbounds [2 x i32], ptr %8, i64 0, i64 1
  %10 = load i32, ptr %9, align 4
  %11 = add nsw i32 %6, %10
  %12 = add nsw i32 %11, 2
  %13 = sitofp i32 %12 to double
  %14 = fmul double 1.000000e+00, %13
  %15 = load ptr, ptr %2, align 8
  %16 = getelementptr inbounds %struct.Sat_Mem_t_, ptr %15, i32 0, i32 4
  %17 = load i32, ptr %16, align 8
  %18 = add nsw i32 %17, 2
  %19 = shl i32 1, %18
  %20 = sitofp i32 %19 to double
  %21 = fmul double %14, %20
  ret double %21
}

; Function Attrs: nounwind uwtable
define double @sat_solver2_memory(ptr noundef %0, i32 noundef %1) #0 {
  %3 = alloca ptr, align 8
  %4 = alloca i32, align 4
  %5 = alloca i32, align 4
  %6 = alloca double, align 8
  store ptr %0, ptr %3, align 8
  store i32 %1, ptr %4, align 4
  store double 6.160000e+02, ptr %6, align 8
  %7 = load i32, ptr %4, align 4
  %8 = icmp ne i32 %7, 0
  br i1 %8, label %9, label %35

9:                                                ; preds = %2
  store i32 0, ptr %5, align 4
  br label %10

10:                                               ; preds = %31, %9
  %11 = load i32, ptr %5, align 4
  %12 = load ptr, ptr %3, align 8
  %13 = getelementptr inbounds %struct.sat_solver2_t, ptr %12, i32 0, i32 1
  %14 = load i32, ptr %13, align 4
  %15 = mul nsw i32 %14, 2
  %16 = icmp slt i32 %11, %15
  br i1 %16, label %17, label %34

17:                                               ; preds = %10
  %18 = load ptr, ptr %3, align 8
  %19 = getelementptr inbounds %struct.sat_solver2_t, ptr %18, i32 0, i32 25
  %20 = load ptr, ptr %19, align 8
  %21 = load i32, ptr %5, align 4
  %22 = sext i32 %21 to i64
  %23 = getelementptr inbounds %struct.veci_t, ptr %20, i64 %22
  %24 = getelementptr inbounds %struct.veci_t, ptr %23, i32 0, i32 0
  %25 = load i32, ptr %24, align 8
  %26 = sext i32 %25 to i64
  %27 = mul i64 %26, 4
  %28 = uitofp i64 %27 to double
  %29 = load double, ptr %6, align 8
  %30 = fadd double %29, %28
  store double %30, ptr %6, align 8
  br label %31

31:                                               ; preds = %17
  %32 = load i32, ptr %5, align 4
  %33 = add nsw i32 %32, 1
  store i32 %33, ptr %5, align 4
  br label %10, !llvm.loop !45

34:                                               ; preds = %10
  br label %35

35:                                               ; preds = %34, %2
  %36 = load ptr, ptr %3, align 8
  %37 = getelementptr inbounds %struct.sat_solver2_t, ptr %36, i32 0, i32 1
  %38 = load i32, ptr %37, align 4
  %39 = sext i32 %38 to i64
  %40 = mul i64 %39, 16
  %41 = uitofp i64 %40 to double
  %42 = load double, ptr %6, align 8
  %43 = fadd double %42, %41
  store double %43, ptr %6, align 8
  %44 = load ptr, ptr %3, align 8
  %45 = getelementptr inbounds %struct.sat_solver2_t, ptr %44, i32 0, i32 26
  %46 = getelementptr inbounds %struct.veci_t, ptr %45, i32 0, i32 0
  %47 = load i32, ptr %46, align 8
  %48 = sext i32 %47 to i64
  %49 = mul i64 %48, 4
  %50 = uitofp i64 %49 to double
  %51 = load double, ptr %6, align 8
  %52 = fadd double %51, %50
  store double %52, ptr %6, align 8
  %53 = load ptr, ptr %3, align 8
  %54 = getelementptr inbounds %struct.sat_solver2_t, ptr %53, i32 0, i32 27
  %55 = getelementptr inbounds %struct.veci_t, ptr %54, i32 0, i32 0
  %56 = load i32, ptr %55, align 8
  %57 = sext i32 %56 to i64
  %58 = mul i64 %57, 4
  %59 = uitofp i64 %58 to double
  %60 = load double, ptr %6, align 8
  %61 = fadd double %60, %59
  store double %61, ptr %6, align 8
  %62 = load ptr, ptr %3, align 8
  %63 = getelementptr inbounds %struct.sat_solver2_t, ptr %62, i32 0, i32 1
  %64 = load i32, ptr %63, align 4
  %65 = sext i32 %64 to i64
  %66 = mul i64 %65, 4
  %67 = uitofp i64 %66 to double
  %68 = load double, ptr %6, align 8
  %69 = fadd double %68, %67
  store double %69, ptr %6, align 8
  %70 = load ptr, ptr %3, align 8
  %71 = getelementptr inbounds %struct.sat_solver2_t, ptr %70, i32 0, i32 1
  %72 = load i32, ptr %71, align 4
  %73 = sext i32 %72 to i64
  %74 = mul i64 %73, 4
  %75 = uitofp i64 %74 to double
  %76 = load double, ptr %6, align 8
  %77 = fadd double %76, %75
  store double %77, ptr %6, align 8
  %78 = load ptr, ptr %3, align 8
  %79 = getelementptr inbounds %struct.sat_solver2_t, ptr %78, i32 0, i32 1
  %80 = load i32, ptr %79, align 4
  %81 = sext i32 %80 to i64
  %82 = mul i64 %81, 1
  %83 = uitofp i64 %82 to double
  %84 = load double, ptr %6, align 8
  %85 = fadd double %84, %83
  store double %85, ptr %6, align 8
  %86 = load ptr, ptr %3, align 8
  %87 = getelementptr inbounds %struct.sat_solver2_t, ptr %86, i32 0, i32 1
  %88 = load i32, ptr %87, align 4
  %89 = sext i32 %88 to i64
  %90 = mul i64 %89, 4
  %91 = uitofp i64 %90 to double
  %92 = load double, ptr %6, align 8
  %93 = fadd double %92, %91
  store double %93, ptr %6, align 8
  %94 = load ptr, ptr %3, align 8
  %95 = getelementptr inbounds %struct.sat_solver2_t, ptr %94, i32 0, i32 12
  %96 = load ptr, ptr %95, align 8
  %97 = icmp ne ptr %96, null
  br i1 %97, label %98, label %107

98:                                               ; preds = %35
  %99 = load ptr, ptr %3, align 8
  %100 = getelementptr inbounds %struct.sat_solver2_t, ptr %99, i32 0, i32 1
  %101 = load i32, ptr %100, align 4
  %102 = sext i32 %101 to i64
  %103 = mul i64 %102, 4
  %104 = uitofp i64 %103 to double
  %105 = load double, ptr %6, align 8
  %106 = fadd double %105, %104
  store double %106, ptr %6, align 8
  br label %107

107:                                              ; preds = %98, %35
  %108 = load ptr, ptr %3, align 8
  %109 = getelementptr inbounds %struct.sat_solver2_t, ptr %108, i32 0, i32 1
  %110 = load i32, ptr %109, align 4
  %111 = sext i32 %110 to i64
  %112 = mul i64 %111, 4
  %113 = uitofp i64 %112 to double
  %114 = load double, ptr %6, align 8
  %115 = fadd double %114, %113
  store double %115, ptr %6, align 8
  %116 = load ptr, ptr %3, align 8
  %117 = getelementptr inbounds %struct.sat_solver2_t, ptr %116, i32 0, i32 1
  %118 = load i32, ptr %117, align 4
  %119 = sext i32 %118 to i64
  %120 = mul i64 %119, 4
  %121 = uitofp i64 %120 to double
  %122 = load double, ptr %6, align 8
  %123 = fadd double %122, %121
  store double %123, ptr %6, align 8
  %124 = load ptr, ptr %3, align 8
  %125 = getelementptr inbounds %struct.sat_solver2_t, ptr %124, i32 0, i32 1
  %126 = load i32, ptr %125, align 4
  %127 = sext i32 %126 to i64
  %128 = mul i64 %127, 4
  %129 = uitofp i64 %128 to double
  %130 = load double, ptr %6, align 8
  %131 = fadd double %130, %129
  store double %131, ptr %6, align 8
  %132 = load ptr, ptr %3, align 8
  %133 = getelementptr inbounds %struct.sat_solver2_t, ptr %132, i32 0, i32 1
  %134 = load i32, ptr %133, align 4
  %135 = sext i32 %134 to i64
  %136 = mul i64 %135, 4
  %137 = uitofp i64 %136 to double
  %138 = load double, ptr %6, align 8
  %139 = fadd double %138, %137
  store double %139, ptr %6, align 8
  %140 = load ptr, ptr %3, align 8
  %141 = getelementptr inbounds %struct.sat_solver2_t, ptr %140, i32 0, i32 1
  %142 = load i32, ptr %141, align 4
  %143 = sext i32 %142 to i64
  %144 = mul i64 %143, 4
  %145 = uitofp i64 %144 to double
  %146 = load double, ptr %6, align 8
  %147 = fadd double %146, %145
  store double %147, ptr %6, align 8
  %148 = load ptr, ptr %3, align 8
  %149 = getelementptr inbounds %struct.sat_solver2_t, ptr %148, i32 0, i32 39
  %150 = getelementptr inbounds %struct.veci_t, ptr %149, i32 0, i32 0
  %151 = load i32, ptr %150, align 8
  %152 = sext i32 %151 to i64
  %153 = mul i64 %152, 4
  %154 = uitofp i64 %153 to double
  %155 = load double, ptr %6, align 8
  %156 = fadd double %155, %154
  store double %156, ptr %6, align 8
  %157 = load ptr, ptr %3, align 8
  %158 = getelementptr inbounds %struct.sat_solver2_t, ptr %157, i32 0, i32 40
  %159 = getelementptr inbounds %struct.veci_t, ptr %158, i32 0, i32 0
  %160 = load i32, ptr %159, align 8
  %161 = sext i32 %160 to i64
  %162 = mul i64 %161, 4
  %163 = uitofp i64 %162 to double
  %164 = load double, ptr %6, align 8
  %165 = fadd double %164, %163
  store double %165, ptr %6, align 8
  %166 = load ptr, ptr %3, align 8
  %167 = getelementptr inbounds %struct.sat_solver2_t, ptr %166, i32 0, i32 41
  %168 = getelementptr inbounds %struct.veci_t, ptr %167, i32 0, i32 0
  %169 = load i32, ptr %168, align 8
  %170 = sext i32 %169 to i64
  %171 = mul i64 %170, 4
  %172 = uitofp i64 %171 to double
  %173 = load double, ptr %6, align 8
  %174 = fadd double %173, %172
  store double %174, ptr %6, align 8
  %175 = load ptr, ptr %3, align 8
  %176 = getelementptr inbounds %struct.sat_solver2_t, ptr %175, i32 0, i32 42
  %177 = getelementptr inbounds %struct.veci_t, ptr %176, i32 0, i32 0
  %178 = load i32, ptr %177, align 8
  %179 = sext i32 %178 to i64
  %180 = mul i64 %179, 4
  %181 = uitofp i64 %180 to double
  %182 = load double, ptr %6, align 8
  %183 = fadd double %182, %181
  store double %183, ptr %6, align 8
  %184 = load ptr, ptr %3, align 8
  %185 = getelementptr inbounds %struct.sat_solver2_t, ptr %184, i32 0, i32 43
  %186 = getelementptr inbounds %struct.veci_t, ptr %185, i32 0, i32 0
  %187 = load i32, ptr %186, align 8
  %188 = sext i32 %187 to i64
  %189 = mul i64 %188, 4
  %190 = uitofp i64 %189 to double
  %191 = load double, ptr %6, align 8
  %192 = fadd double %191, %190
  store double %192, ptr %6, align 8
  %193 = load ptr, ptr %3, align 8
  %194 = getelementptr inbounds %struct.sat_solver2_t, ptr %193, i32 0, i32 44
  %195 = getelementptr inbounds %struct.veci_t, ptr %194, i32 0, i32 0
  %196 = load i32, ptr %195, align 8
  %197 = sext i32 %196 to i64
  %198 = mul i64 %197, 4
  %199 = uitofp i64 %198 to double
  %200 = load double, ptr %6, align 8
  %201 = fadd double %200, %199
  store double %201, ptr %6, align 8
  %202 = load ptr, ptr %3, align 8
  %203 = getelementptr inbounds %struct.sat_solver2_t, ptr %202, i32 0, i32 45
  %204 = getelementptr inbounds %struct.veci_t, ptr %203, i32 0, i32 0
  %205 = load i32, ptr %204, align 8
  %206 = sext i32 %205 to i64
  %207 = mul i64 %206, 4
  %208 = uitofp i64 %207 to double
  %209 = load double, ptr %6, align 8
  %210 = fadd double %209, %208
  store double %210, ptr %6, align 8
  %211 = load ptr, ptr %3, align 8
  %212 = getelementptr inbounds %struct.sat_solver2_t, ptr %211, i32 0, i32 46
  %213 = getelementptr inbounds %struct.veci_t, ptr %212, i32 0, i32 0
  %214 = load i32, ptr %213, align 8
  %215 = sext i32 %214 to i64
  %216 = mul i64 %215, 4
  %217 = uitofp i64 %216 to double
  %218 = load double, ptr %6, align 8
  %219 = fadd double %218, %217
  store double %219, ptr %6, align 8
  %220 = load ptr, ptr %3, align 8
  %221 = getelementptr inbounds %struct.sat_solver2_t, ptr %220, i32 0, i32 47
  %222 = getelementptr inbounds %struct.veci_t, ptr %221, i32 0, i32 0
  %223 = load i32, ptr %222, align 8
  %224 = sext i32 %223 to i64
  %225 = mul i64 %224, 4
  %226 = uitofp i64 %225 to double
  %227 = load double, ptr %6, align 8
  %228 = fadd double %227, %226
  store double %228, ptr %6, align 8
  %229 = load ptr, ptr %3, align 8
  %230 = getelementptr inbounds %struct.sat_solver2_t, ptr %229, i32 0, i32 50
  %231 = getelementptr inbounds %struct.veci_t, ptr %230, i32 0, i32 0
  %232 = load i32, ptr %231, align 8
  %233 = sext i32 %232 to i64
  %234 = mul i64 %233, 4
  %235 = uitofp i64 %234 to double
  %236 = load double, ptr %6, align 8
  %237 = fadd double %236, %235
  store double %237, ptr %6, align 8
  %238 = load ptr, ptr %3, align 8
  %239 = getelementptr inbounds %struct.sat_solver2_t, ptr %238, i32 0, i32 24
  %240 = call double @Sat_MemMemoryAll(ptr noundef %239)
  %241 = load double, ptr %6, align 8
  %242 = fadd double %241, %240
  store double %242, ptr %6, align 8
  %243 = load double, ptr %6, align 8
  ret double %243
}