; Function Attrs: nofree norecurse nosync nounwind memory(read, inaccessiblemem: none) uwtable
define double @sat_solver2_memory(ptr noundef readonly captures(none) %0, i32 noundef %1) local_unnamed_addr #14 {
  %.not = icmp ne i32 %1, 0
  %.phi.trans.insert = getelementptr inbounds nuw i8, ptr %0, i64 4
  %.pre = load i32, ptr %.phi.trans.insert, align 4
  %3 = icmp sgt i32 %.pre, 0
  %or.cond = select i1 %.not, i1 %3, i1 false
  br i1 %or.cond, label %.lr.ph, label %.loopexit

.lr.ph:                                           ; preds = %2
  %4 = shl nuw i32 %.pre, 1
  %5 = getelementptr inbounds nuw i8, ptr %0, i64 176
  %6 = load ptr, ptr %5, align 8
  %smax = tail call i32 @llvm.smax.i32(i32 %4, i32 1)
  %wide.trip.count = zext nneg i32 %smax to i64
  br label %7

7:                                                ; preds = %.lr.ph, %7
  %indvars.iv = phi i64 [ 0, %.lr.ph ], [ %indvars.iv.next, %7 ]
  %.159 = phi double [ 6.160000e+02, %.lr.ph ], [ %13, %7 ]
  %8 = getelementptr inbounds nuw %struct.veci_t, ptr %6, i64 %indvars.iv
  %9 = load i32, ptr %8, align 8
  %10 = sext i32 %9 to i64
  %11 = shl nsw i64 %10, 2
  %12 = uitofp i64 %11 to double
  %13 = fadd double %.159, %12
  %indvars.iv.next = add nuw nsw i64 %indvars.iv, 1
  %exitcond.not = icmp eq i64 %indvars.iv.next, %wide.trip.count
  br i1 %exitcond.not, label %.loopexit, label %7, !llvm.loop !53

.loopexit:                                        ; preds = %7, %2
  %.0 = phi double [ 6.160000e+02, %2 ], [ %13, %7 ]
  %14 = sext i32 %.pre to i64
  %15 = shl nsw i64 %14, 4
  %16 = uitofp i64 %15 to double
  %17 = fadd double %.0, %16
  %18 = getelementptr inbounds nuw i8, ptr %0, i64 184
  %19 = load i32, ptr %18, align 8
  %20 = sext i32 %19 to i64
  %21 = shl nsw i64 %20, 2
  %22 = uitofp i64 %21 to double
  %23 = fadd double %17, %22
  %24 = getelementptr inbounds nuw i8, ptr %0, i64 200
  %25 = load i32, ptr %24, align 8
  %26 = sext i32 %25 to i64
  %27 = shl nsw i64 %26, 2
  %28 = uitofp i64 %27 to double
  %29 = fadd double %23, %28
  %30 = shl nsw i64 %14, 2
  %31 = uitofp i64 %30 to double
  %32 = fadd double %29, %31
  %33 = fadd double %32, %31
  %34 = uitofp i64 %14 to double
  %35 = fadd double %33, %34
  %36 = fadd double %35, %31
  %37 = getelementptr inbounds nuw i8, ptr %0, i64 64
  %38 = load ptr, ptr %37, align 8
  %.not57 = icmp eq ptr %38, null
  %39 = fadd double %36, %31
  %.2 = select i1 %.not57, double %36, double %39
  %40 = fadd double %.2, %31
  %41 = fadd double %40, %31
  %42 = fadd double %41, %31
  %43 = fadd double %42, %31
  %44 = fadd double %43, %31
  %45 = getelementptr inbounds nuw i8, ptr %0, i64 296
  %46 = load i32, ptr %45, align 8
  %47 = sext i32 %46 to i64
  %48 = shl nsw i64 %47, 2
  %49 = uitofp i64 %48 to double
  %50 = fadd double %44, %49
  %51 = getelementptr inbounds nuw i8, ptr %0, i64 312
  %52 = load i32, ptr %51, align 8
  %53 = sext i32 %52 to i64
  %54 = shl nsw i64 %53, 2
  %55 = uitofp i64 %54 to double
  %56 = fadd double %50, %55
  %57 = getelementptr inbounds nuw i8, ptr %0, i64 328
  %58 = load i32, ptr %57, align 8
  %59 = sext i32 %58 to i64
  %60 = shl nsw i64 %59, 2
  %61 = uitofp i64 %60 to double
  %62 = fadd double %56, %61
  %63 = getelementptr inbounds nuw i8, ptr %0, i64 344
  %64 = load i32, ptr %63, align 8
  %65 = sext i32 %64 to i64
  %66 = shl nsw i64 %65, 2
  %67 = uitofp i64 %66 to double
  %68 = fadd double %62, %67
  %69 = getelementptr inbounds nuw i8, ptr %0, i64 360
  %70 = load i32, ptr %69, align 8
  %71 = sext i32 %70 to i64
  %72 = shl nsw i64 %71, 2
  %73 = uitofp i64 %72 to double
  %74 = fadd double %68, %73
  %75 = getelementptr inbounds nuw i8, ptr %0, i64 376
  %76 = load i32, ptr %75, align 8
  %77 = sext i32 %76 to i64
  %78 = shl nsw i64 %77, 2
  %79 = uitofp i64 %78 to double
  %80 = fadd double %74, %79
  %81 = getelementptr inbounds nuw i8, ptr %0, i64 392
  %82 = load i32, ptr %81, align 8
  %83 = sext i32 %82 to i64
  %84 = shl nsw i64 %83, 2
  %85 = uitofp i64 %84 to double
  %86 = fadd double %80, %85
  %87 = getelementptr inbounds nuw i8, ptr %0, i64 408
  %88 = load i32, ptr %87, align 8
  %89 = sext i32 %88 to i64
  %90 = shl nsw i64 %89, 2
  %91 = uitofp i64 %90 to double
  %92 = fadd double %86, %91
  %93 = getelementptr inbounds nuw i8, ptr %0, i64 424
  %94 = load i32, ptr %93, align 8
  %95 = sext i32 %94 to i64
  %96 = shl nsw i64 %95, 2
  %97 = uitofp i64 %96 to double
  %98 = fadd double %92, %97
  %99 = getelementptr inbounds nuw i8, ptr %0, i64 464
  %100 = load i32, ptr %99, align 8
  %101 = sext i32 %100 to i64
  %102 = shl nsw i64 %101, 2
  %103 = uitofp i64 %102 to double
  %104 = fadd double %98, %103
  %105 = getelementptr inbounds nuw i8, ptr %0, i64 144
  %106 = load i32, ptr %105, align 8
  %107 = getelementptr inbounds nuw i8, ptr %0, i64 148
  %108 = load i32, ptr %107, align 4
  %109 = add i32 %106, 2
  %110 = add i32 %109, %108
  %111 = sitofp i32 %110 to double
  %112 = getelementptr inbounds nuw i8, ptr %0, i64 152
  %113 = load i32, ptr %112, align 8
  %114 = add nsw i32 %113, 2
  %115 = shl nuw i32 1, %114
  %116 = sitofp i32 %115 to double
  %117 = fmul double %111, %116
  %118 = fadd double %117, %104
  ret double %118
}